target datalayout = "e-m:e-p270:32:32-p271:32:32-p272:64:64-i64:64-i128:128-f80:128-n8:16:32:64-S128"
target triple = "x86_64-pc-linux-gnu"

%"struct.std::_Vector_base" = type { %"struct.std::_Vector_base<long long, std::allocator<long long>>::_Vector_impl" }
%"struct.std::_Vector_base<long long, std::allocator<long long>>::_Vector_impl" = type { %"struct.std::_Vector_base<long long, std::allocator<long long>>::_Vector_impl_data" }
%"struct.std::_Vector_base<long long, std::allocator<long long>>::_Vector_impl_data" = type { ptr, ptr, ptr }

; Function Attrs: mustprogress nounwind uwtable
define linkonce_odr hidden noundef nonnull align 8 dereferenceable(8) ptr @_ZNKSt6vectorIxSaIxEEixEm(ptr noundef nonnull align 8 dereferenceable(24) %0, i64 noundef %1) #4 comdat align 2 {
  %3 = alloca ptr, align 8
  %4 = alloca i64, align 8
  store ptr %0, ptr %3, align 8
  store i64 %1, ptr %4, align 8
  %5 = load ptr, ptr %3, align 8
  %6 = getelementptr inbounds %"struct.std::_Vector_base", ptr %5, i32 0, i32 0
  %7 = getelementptr inbounds %"struct.std::_Vector_base<long long, std::allocator<long long>>::_Vector_impl_data", ptr %6, i32 0, i32 0
  %8 = load ptr, ptr %7, align 8
  %9 = load i64, ptr %4, align 8
  %10 = getelementptr inbounds i64, ptr %8, i64 %9
  ret ptr %10
}

; Function Attrs: mustprogress nounwind uwtable
define linkonce_odr hidden noundef nonnull align 8 dereferenceable(8) ptr @_ZNSt6vectorIxSaIxEEixEm(ptr noundef nonnull align 8 dereferenceable(24) %0, i64 noundef %1) #4 comdat align 2 {
  %3 = alloca ptr, align 8
  %4 = alloca i64, align 8
  store ptr %0, ptr %3, align 8
  store i64 %1, ptr %4, align 8
  %5 = load ptr, ptr %3, align 8
  %6 = getelementptr inbounds %"struct.std::_Vector_base", ptr %5, i32 0, i32 0
  %7 = getelementptr inbounds %"struct.std::_Vector_base<long long, std::allocator<long long>>::_Vector_impl_data", ptr %6, i32 0, i32 0
  %8 = load ptr, ptr %7, align 8
  %9 = load i64, ptr %4, align 8
  %10 = getelementptr inbounds i64, ptr %8, i64 %9
  ret ptr %10
}

; Function Attrs: mustprogress nounwind uwtable
define void @_ZN6casadi16SparsityInternal7matchedExRKSt6vectorIxSaIxEES5_RS3_S6_S6_S6_xx(i64 noundef %0, ptr noundef nonnull align 8 dereferenceable(24) %1, ptr noundef nonnull align 8 dereferenceable(24) %2, ptr noundef nonnull align 8 dereferenceable(24) %3, ptr noundef nonnull align 8 dereferenceable(24) %4, ptr noundef nonnull align 8 dereferenceable(24) %5, ptr noundef nonnull align 8 dereferenceable(24) %6, i64 noundef %7, i64 noundef %8) #4 align 2 {
  %10 = alloca i64, align 8
  %11 = alloca ptr, align 8
  %12 = alloca ptr, align 8
  %13 = alloca ptr, align 8
  %14 = alloca ptr, align 8
  %15 = alloca ptr, align 8
  %16 = alloca ptr, align 8
  %17 = alloca i64, align 8
  %18 = alloca i64, align 8
  %19 = alloca i64, align 8
  %20 = alloca i64, align 8
  %21 = alloca i64, align 8
  store i64 %0, ptr %10, align 8
  store ptr %1, ptr %11, align 8
  store ptr %2, ptr %12, align 8
  store ptr %3, ptr %13, align 8
  store ptr %4, ptr %14, align 8
  store ptr %5, ptr %15, align 8
  store ptr %6, ptr %16, align 8
  store i64 %7, ptr %17, align 8
  store i64 %8, ptr %18, align 8
  %22 = load ptr, ptr %15, align 8
  %23 = load i64, ptr %17, align 8
  %24 = call noundef nonnull align 8 dereferenceable(8) ptr @_ZNSt6vectorIxSaIxEEixEm(ptr noundef nonnull align 8 dereferenceable(24) %22, i64 noundef %23) #3
  %25 = load i64, ptr %24, align 8
  store i64 %25, ptr %19, align 8
  %26 = load ptr, ptr %16, align 8
  %27 = load i64, ptr %17, align 8
  %28 = sub nsw i64 %27, 1
  %29 = call noundef nonnull align 8 dereferenceable(8) ptr @_ZNSt6vectorIxSaIxEEixEm(ptr noundef nonnull align 8 dereferenceable(24) %26, i64 noundef %28) #3
  %30 = load i64, ptr %29, align 8
  store i64 %30, ptr %20, align 8
  store i64 0, ptr %21, align 8
  br label %31

31:                                               ; preds = %57, %9
  %32 = load i64, ptr %21, align 8
  %33 = load i64, ptr %10, align 8
  %34 = icmp slt i64 %32, %33
  br i1 %34, label %35, label %60

35:                                               ; preds = %31
  %36 = load ptr, ptr %11, align 8
  %37 = load i64, ptr %21, align 8
  %38 = call noundef nonnull align 8 dereferenceable(8) ptr @_ZNKSt6vectorIxSaIxEEixEm(ptr noundef nonnull align 8 dereferenceable(24) %36, i64 noundef %37) #3
  %39 = load i64, ptr %38, align 8
  %40 = load i64, ptr %18, align 8
  %41 = icmp ne i64 %39, %40
  br i1 %41, label %42, label %43

42:                                               ; preds = %35
  br label %57

43:                                               ; preds = %35
  %44 = load ptr, ptr %12, align 8
  %45 = load i64, ptr %21, align 8
  %46 = call noundef nonnull align 8 dereferenceable(8) ptr @_ZNKSt6vectorIxSaIxEEixEm(ptr noundef nonnull align 8 dereferenceable(24) %44, i64 noundef %45) #3
  %47 = load i64, ptr %46, align 8
  %48 = load ptr, ptr %13, align 8
  %49 = load i64, ptr %20, align 8
  %50 = add nsw i64 %49, 1
  store i64 %50, ptr %20, align 8
  %51 = call noundef nonnull align 8 dereferenceable(8) ptr @_ZNSt6vectorIxSaIxEEixEm(ptr noundef nonnull align 8 dereferenceable(24) %48, i64 noundef %49) #3
  store i64 %47, ptr %51, align 8
  %52 = load i64, ptr %21, align 8
  %53 = load ptr, ptr %14, align 8
  %54 = load i64, ptr %19, align 8
  %55 = add nsw i64 %54, 1
  store i64 %55, ptr %19, align 8
  %56 = call noundef nonnull align 8 dereferenceable(8) ptr @_ZNSt6vectorIxSaIxEEixEm(ptr noundef nonnull align 8 dereferenceable(24) %53, i64 noundef %54) #3
  store i64 %52, ptr %56, align 8
  br label %57

57:                                               ; preds = %43, %42
  %58 = load i64, ptr %21, align 8
  %59 = add nsw i64 %58, 1
  store i64 %59, ptr %21, align 8
  br label %31, !llvm.loop !97

60:                                               ; preds = %31
  %61 = load i64, ptr %19, align 8
  %62 = load ptr, ptr %15, align 8
  %63 = load i64, ptr %17, align 8
  %64 = add nsw i64 %63, 1
  %65 = call noundef nonnull align 8 dereferenceable(8) ptr @_ZNSt6vectorIxSaIxEEixEm(ptr noundef nonnull align 8 dereferenceable(24) %62, i64 noundef %64) #3
  store i64 %61, ptr %65, align 8
  %66 = load i64, ptr %20, align 8
  %67 = load ptr, ptr %16, align 8
  %68 = load i64, ptr %17, align 8
  %69 = call noundef nonnull align 8 dereferenceable(8) ptr @_ZNSt6vectorIxSaIxEEixEm(ptr noundef nonnull align 8 dereferenceable(24) %67, i64 noundef %68) #3
  store i64 %66, ptr %69, align 8
  ret void
}