; Function Attrs: mustprogress nofree norecurse nosync nounwind memory(readwrite, inaccessiblemem: none) uwtable
define void @_ZN6casadi16SparsityInternal7matchedExRKSt6vectorIxSaIxEES5_RS3_S6_S6_S6_xx(i64 noundef %0, ptr nocapture noundef nonnull readonly align 8 dereferenceable(24) %1, ptr nocapture noundef nonnull readonly align 8 dereferenceable(24) %2, ptr nocapture noundef nonnull readonly align 8 dereferenceable(24) %3, ptr nocapture noundef nonnull readonly align 8 dereferenceable(24) %4, ptr nocapture noundef nonnull readonly align 8 dereferenceable(24) %5, ptr nocapture noundef nonnull readonly align 8 dereferenceable(24) %6, i64 noundef %7, i64 noundef %8) local_unnamed_addr #4 align 2 {
  %10 = load ptr, ptr %5, align 8
  %11 = getelementptr inbounds i64, ptr %10, i64 %7
  %12 = load i64, ptr %11, align 8
  %13 = load ptr, ptr %6, align 8
  %14 = getelementptr i64, ptr %13, i64 %7
  %15 = getelementptr i8, ptr %14, i64 -8
  %16 = load i64, ptr %15, align 8
  %17 = icmp sgt i64 %0, 0
  br i1 %17, label %.lr.ph, label %._crit_edge

.lr.ph:                                           ; preds = %9, %31
  %.027 = phi i64 [ %32, %31 ], [ 0, %9 ]
  %.02226 = phi i64 [ %.1, %31 ], [ %16, %9 ]
  %.02325 = phi i64 [ %.124, %31 ], [ %12, %9 ]
  %18 = load ptr, ptr %1, align 8
  %19 = getelementptr inbounds i64, ptr %18, i64 %.027
  %20 = load i64, ptr %19, align 8
  %.not = icmp eq i64 %20, %8
  br i1 %.not, label %21, label %31

21:                                               ; preds = %.lr.ph
  %22 = load ptr, ptr %2, align 8
  %23 = getelementptr inbounds i64, ptr %22, i64 %.027
  %24 = load i64, ptr %23, align 8
  %25 = add nsw i64 %.02226, 1
  %26 = load ptr, ptr %3, align 8
  %27 = getelementptr inbounds i64, ptr %26, i64 %.02226
  store i64 %24, ptr %27, align 8
  %28 = add nsw i64 %.02325, 1
  %29 = load ptr, ptr %4, align 8
  %30 = getelementptr inbounds i64, ptr %29, i64 %.02325
  store i64 %.027, ptr %30, align 8
  br label %31

31:                                               ; preds = %.lr.ph, %21
  %.124 = phi i64 [ %.02325, %.lr.ph ], [ %28, %21 ]
  %.1 = phi i64 [ %.02226, %.lr.ph ], [ %25, %21 ]
  %32 = add nuw nsw i64 %.027, 1
  %exitcond.not = icmp eq i64 %32, %0
  br i1 %exitcond.not, label %._crit_edge.loopexit, label %.lr.ph, !llvm.loop !129

._crit_edge.loopexit:                             ; preds = %31
  %.pre = load ptr, ptr %5, align 8
  br label %._crit_edge

._crit_edge:                                      ; preds = %._crit_edge.loopexit, %9
  %33 = phi ptr [ %10, %9 ], [ %.pre, %._crit_edge.loopexit ]
  %.023.lcssa = phi i64 [ %12, %9 ], [ %.124, %._crit_edge.loopexit ]
  %.022.lcssa = phi i64 [ %16, %9 ], [ %.1, %._crit_edge.loopexit ]
  %34 = getelementptr i64, ptr %33, i64 %7
  %35 = getelementptr i8, ptr %34, i64 8
  store i64 %.023.lcssa, ptr %35, align 8
  %36 = load ptr, ptr %6, align 8
  %37 = getelementptr inbounds i64, ptr %36, i64 %7
  store i64 %.022.lcssa, ptr %37, align 8
  ret void
}